target datalayout = "e-m:e-p270:32:32-p271:32:32-p272:64:64-i64:64-f80:128-n8:16:32:64-S128"
target triple = "x86_64-pc-linux-gnu"

@.str = private unnamed_addr constant [3 x i8] c"%d\00", align 1
@.str.1 = private unnamed_addr constant [4 x i8] c"%d\0A\00", align 1

; Function Attrs: noinline nounwind uwtable
define dso_local i32 @main() #0 {
  %1 = alloca i32, align 4
  %2 = alloca [26 x i32], align 16
  %3 = alloca i32, align 4
  %4 = alloca i32, align 4
  %5 = alloca i32, align 4
  %6 = alloca [26 x i32], align 16
  store i32 0, i32* %1, align 4
  %7 = call i32 (i8*, ...) @__isoc99_scanf(i8* getelementptr inbounds ([3 x i8], [3 x i8]* @.str, i64 0, i64 0), i32* %4)
  store i32 1, i32* %5, align 4
  br label %8

8:                                                ; preds = %17, %0
  %9 = load i32, i32* %5, align 4
  %10 = load i32, i32* %4, align 4
  %11 = icmp sle i32 %9, %10
  br i1 %11, label %12, label %20

12:                                               ; preds = %8
  %13 = load i32, i32* %5, align 4
  %14 = sext i32 %13 to i64
  %15 = getelementptr inbounds [26 x i32], [26 x i32]* %6, i64 0, i64 %14
  %16 = call i32 (i8*, ...) @__isoc99_scanf(i8* getelementptr inbounds ([3 x i8], [3 x i8]* @.str, i64 0, i64 0), i32* %15)
  br label %17

17:                                               ; preds = %12
  %18 = load i32, i32* %5, align 4
  %19 = add nsw i32 %18, 1
  store i32 %19, i32* %5, align 4
  br label %8

20:                                               ; preds = %8
  store i32 1, i32* %5, align 4
  br label %21

21:                                               ; preds = %33, %20
  %22 = load i32, i32* %5, align 4
  %23 = load i32, i32* %4, align 4
  %24 = icmp sle i32 %22, %23
  br i1 %24, label %25, label %36

25:                                               ; preds = %21
  %26 = load i32, i32* %5, align 4
  %27 = load i32, i32* %4, align 4
  %28 = getelementptr inbounds [26 x i32], [26 x i32]* %6, i64 0, i64 0
  %29 = call i32 @cmp(i32 %26, i32 %27, i32* %28)
  %30 = load i32, i32* %5, align 4
  %31 = sext i32 %30 to i64
  %32 = getelementptr inbounds [26 x i32], [26 x i32]* %2, i64 0, i64 %31
  store i32 %29, i32* %32, align 4
  br label %33

33:                                               ; preds = %25
  %34 = load i32, i32* %5, align 4
  %35 = add nsw i32 %34, 1
  store i32 %35, i32* %5, align 4
  br label %21

36:                                               ; preds = %21
  %37 = getelementptr inbounds [26 x i32], [26 x i32]* %2, i64 0, i64 0
  %38 = load i32, i32* %4, align 4
  %39 = call i32 @max(i32* %37, i32 %38)
  store i32 %39, i32* %3, align 4
  %40 = load i32, i32* %3, align 4
  %41 = call i32 (i8*, ...) @printf(i8* getelementptr inbounds ([4 x i8], [4 x i8]* @.str.1, i64 0, i64 0), i32 %40)
  ret i32 0
}

; Function Attrs: noinline nounwind uwtable
define dso_local i32 @cmp(i32 %0, i32 %1, i32* %2) #0 {
  %4 = alloca i32, align 4
  %5 = alloca i32, align 4
  %6 = alloca i32, align 4
  %7 = alloca i32*, align 8
  %8 = alloca [26 x i32], align 16
  %9 = alloca i32, align 4
  %10 = alloca i32, align 4
  store i32 %0, i32* %5, align 4
  store i32 %1, i32* %6, align 4
  store i32* %2, i32** %7, align 8
  store i32 1, i32* %10, align 4
  %11 = load i32, i32* %5, align 4
  %12 = load i32, i32* %6, align 4
  %13 = icmp eq i32 %11, %12
  br i1 %13, label %14, label %15

14:                                               ; preds = %3
  store i32 1, i32* %4, align 4
  br label %58

15:                                               ; preds = %3
  %16 = load i32, i32* %5, align 4
  %17 = add nsw i32 %16, 1
  store i32 %17, i32* %9, align 4
  br label %18

18:                                               ; preds = %45, %15
  %19 = load i32, i32* %9, align 4
  %20 = load i32, i32* %6, align 4
  %21 = icmp sle i32 %19, %20
  br i1 %21, label %22, label %48

22:                                               ; preds = %18
  %23 = load i32*, i32** %7, align 8
  %24 = load i32, i32* %5, align 4
  %25 = sext i32 %24 to i64
  %26 = getelementptr inbounds i32, i32* %23, i64 %25
  %27 = load i32, i32* %26, align 4
  %28 = load i32*, i32** %7, align 8
  %29 = load i32, i32* %9, align 4
  %30 = sext i32 %29 to i64
  %31 = getelementptr inbounds i32, i32* %28, i64 %30
  %32 = load i32, i32* %31, align 4
  %33 = icmp sge i32 %27, %32
  br i1 %33, label %34, label %44

34:                                               ; preds = %22
  %35 = load i32, i32* %9, align 4
  %36 = load i32, i32* %6, align 4
  %37 = load i32*, i32** %7, align 8
  %38 = call i32 @cmp(i32 %35, i32 %36, i32* %37)
  %39 = load i32, i32* %10, align 4
  %40 = sext i32 %39 to i64
  %41 = getelementptr inbounds [26 x i32], [26 x i32]* %8, i64 0, i64 %40
  store i32 %38, i32* %41, align 4
  %42 = load i32, i32* %10, align 4
  %43 = add nsw i32 %42, 1
  store i32 %43, i32* %10, align 4
  br label %44

44:                                               ; preds = %34, %22
  br label %45

45:                                               ; preds = %44
  %46 = load i32, i32* %9, align 4
  %47 = add nsw i32 %46, 1
  store i32 %47, i32* %9, align 4
  br label %18

48:                                               ; preds = %18
  %49 = load i32, i32* %10, align 4
  %50 = icmp eq i32 %49, 1
  br i1 %50, label %51, label %52

51:                                               ; preds = %48
  store i32 1, i32* %4, align 4
  br label %58

52:                                               ; preds = %48
  %53 = getelementptr inbounds [26 x i32], [26 x i32]* %8, i64 0, i64 0
  %54 = load i32, i32* %10, align 4
  %55 = sub nsw i32 %54, 1
  %56 = call i32 @max(i32* %53, i32 %55)
  %57 = add nsw i32 %56, 1
  store i32 %57, i32* %4, align 4
  br label %58

58:                                               ; preds = %52, %51, %14
  %59 = load i32, i32* %4, align 4
  ret i32 %59
}

; Function Attrs: noinline nounwind uwtable
define dso_local i32 @max(i32* %0, i32 %1) #0 {
  %3 = alloca i32*, align 8
  %4 = alloca i32, align 4
  %5 = alloca i32, align 4
  %6 = alloca i32, align 4
  store i32* %0, i32** %3, align 8
  store i32 %1, i32* %4, align 4
  %7 = load i32*, i32** %3, align 8
  %8 = getelementptr inbounds i32, i32* %7, i64 1
  %9 = load i32, i32* %8, align 4
  store i32 %9, i32* %5, align 4
  store i32 1, i32* %6, align 4
  br label %10

10:                                               ; preds = %29, %2
  %11 = load i32, i32* %6, align 4
  %12 = load i32, i32* %4, align 4
  %13 = icmp sle i32 %11, %12
  br i1 %13, label %14, label %32

14:                                               ; preds = %10
  %15 = load i32, i32* %5, align 4
  %16 = load i32*, i32** %3, align 8
  %17 = load i32, i32* %6, align 4
  %18 = sext i32 %17 to i64
  %19 = getelementptr inbounds i32, i32* %16, i64 %18
  %20 = load i32, i32* %19, align 4
  %21 = icmp slt i32 %15, %20
  br i1 %21, label %22, label %28

22:                                               ; preds = %14
  %23 = load i32*, i32** %3, align 8
  %24 = load i32, i32* %6, align 4
  %25 = sext i32 %24 to i64
  %26 = getelementptr inbounds i32, i32* %23, i64 %25
  %27 = load i32, i32* %26, align 4
  store i32 %27, i32* %5, align 4
  br label %28

28:                                               ; preds = %22, %14
  br label %29

29:                                               ; preds = %28
  %30 = load i32, i32* %6, align 4
  %31 = add nsw i32 %30, 1
  store i32 %31, i32* %6, align 4
  br label %10

32:                                               ; preds = %10
  %33 = load i32, i32* %5, align 4
  ret i32 %33
}